target datalayout = "e-m:e-p270:32:32-p271:32:32-p272:64:64-i64:64-i128:128-f80:128-n8:16:32:64-S128"
target triple = "x86_64-pc-linux-gnu"

%struct._DwaCompressor = type { ptr, ptr, i32, i32, [2 x i32], [2 x i32], i32, i32, ptr, ptr, ptr, ptr, i64, ptr, i64, ptr, i64, ptr, i64, [3 x ptr], [3 x i64], ptr, ptr, i32, float }
%struct.exr_coding_channel_info_t = type { ptr, i32, i32, i32, i32, i8, i8, i16, i16, i16, i32, i32, %union.anon }
%union.anon = type { ptr }
%struct._ChannelData = type { %struct._DctCoderChannelData, ptr, ptr, ptr, [4 x ptr], [4 x ptr], i64, i32, i32, i32, [20 x i8] }
%struct._DctCoderChannelData = type { [64 x float], [64 x i16], ptr, ptr, i64, i64, i32, [28 x i8] }

; Function Attrs: nounwind uwtable
define internal i32 @DwaCompressor_setupChannelData(ptr noundef %0) #0 {
  %2 = alloca ptr, align 8
  %3 = alloca [3 x ptr], align 16
  %4 = alloca i32, align 4
  %5 = alloca i32, align 4
  %6 = alloca i32, align 4
  %7 = alloca ptr, align 8
  %8 = alloca ptr, align 8
  %9 = alloca i64, align 8
  %10 = alloca i32, align 4
  %11 = alloca i32, align 4
  store ptr %0, ptr %2, align 8, !tbaa !17
  call void @llvm.lifetime.start.p0(i64 24, ptr %3) #14
  call void @llvm.lifetime.start.p0(i64 4, ptr %4) #14
  store i32 0, ptr %4, align 4, !tbaa !8
  br label %12

12:                                               ; preds = %38, %1
  %13 = load i32, ptr %4, align 4, !tbaa !8
  %14 = icmp slt i32 %13, 3
  br i1 %14, label %16, label %15

15:                                               ; preds = %12
  call void @llvm.lifetime.end.p0(i64 4, ptr %4) #14
  br label %41

16:                                               ; preds = %12
  %17 = load i32, ptr %4, align 4, !tbaa !8
  %18 = sext i32 %17 to i64
  %19 = getelementptr inbounds [3 x ptr], ptr %3, i64 0, i64 %18
  store ptr null, ptr %19, align 8, !tbaa !81
  %20 = load ptr, ptr %2, align 8, !tbaa !17
  %21 = getelementptr inbounds nuw %struct._DwaCompressor, ptr %20, i32 0, i32 19
  %22 = load i32, ptr %4, align 4, !tbaa !8
  %23 = sext i32 %22 to i64
  %24 = getelementptr inbounds [3 x ptr], ptr %21, i64 0, i64 %23
  %25 = load ptr, ptr %24, align 8, !tbaa !81
  %26 = icmp ne ptr %25, null
  br i1 %26, label %27, label %37

27:                                               ; preds = %16
  %28 = load ptr, ptr %2, align 8, !tbaa !17
  %29 = getelementptr inbounds nuw %struct._DwaCompressor, ptr %28, i32 0, i32 19
  %30 = load i32, ptr %4, align 4, !tbaa !8
  %31 = sext i32 %30 to i64
  %32 = getelementptr inbounds [3 x ptr], ptr %29, i64 0, i64 %31
  %33 = load ptr, ptr %32, align 8, !tbaa !81
  %34 = load i32, ptr %4, align 4, !tbaa !8
  %35 = sext i32 %34 to i64
  %36 = getelementptr inbounds [3 x ptr], ptr %3, i64 0, i64 %35
  store ptr %33, ptr %36, align 8, !tbaa !81
  br label %37

37:                                               ; preds = %27, %16
  br label %38

38:                                               ; preds = %37
  %39 = load i32, ptr %4, align 4, !tbaa !8
  %40 = add nsw i32 %39, 1
  store i32 %40, ptr %4, align 4, !tbaa !8
  br label %12, !llvm.loop !181

41:                                               ; preds = %15
  call void @llvm.lifetime.start.p0(i64 4, ptr %5) #14
  store i32 0, ptr %5, align 4, !tbaa !8
  br label %42

42:                                               ; preds = %200, %41
  %43 = load i32, ptr %5, align 4, !tbaa !8
  %44 = load ptr, ptr %2, align 8, !tbaa !17
  %45 = getelementptr inbounds nuw %struct._DwaCompressor, ptr %44, i32 0, i32 6
  %46 = load i32, ptr %45, align 8, !tbaa !47
  %47 = icmp slt i32 %43, %46
  br i1 %47, label %49, label %48

48:                                               ; preds = %42
  store i32 5, ptr %6, align 4
  call void @llvm.lifetime.end.p0(i64 4, ptr %5) #14
  br label %203

49:                                               ; preds = %42
  call void @llvm.lifetime.start.p0(i64 8, ptr %7) #14
  %50 = load ptr, ptr %2, align 8, !tbaa !17
  %51 = getelementptr inbounds nuw %struct._DwaCompressor, ptr %50, i32 0, i32 8
  %52 = load ptr, ptr %51, align 8, !tbaa !46
  %53 = load i32, ptr %5, align 4, !tbaa !8
  %54 = sext i32 %53 to i64
  %55 = getelementptr inbounds %struct._ChannelData, ptr %52, i64 %54
  store ptr %55, ptr %7, align 8, !tbaa !87
  call void @llvm.lifetime.start.p0(i64 8, ptr %8) #14
  %56 = load ptr, ptr %7, align 8, !tbaa !87
  %57 = getelementptr inbounds nuw %struct._ChannelData, ptr %56, i32 0, i32 1
  %58 = load ptr, ptr %57, align 32, !tbaa !49
  store ptr %58, ptr %8, align 8, !tbaa !88
  call void @llvm.lifetime.start.p0(i64 8, ptr %9) #14
  %59 = load ptr, ptr %8, align 8, !tbaa !88
  %60 = getelementptr inbounds nuw %struct.exr_coding_channel_info_t, ptr %59, i32 0, i32 2
  %61 = load i32, ptr %60, align 4, !tbaa !90
  %62 = sext i32 %61 to i64
  %63 = load ptr, ptr %8, align 8, !tbaa !88
  %64 = getelementptr inbounds nuw %struct.exr_coding_channel_info_t, ptr %63, i32 0, i32 1
  %65 = load i32, ptr %64, align 8, !tbaa !98
  %66 = sext i32 %65 to i64
  %67 = mul i64 %62, %66
  %68 = load ptr, ptr %8, align 8, !tbaa !88
  %69 = getelementptr inbounds nuw %struct.exr_coding_channel_info_t, ptr %68, i32 0, i32 6
  %70 = load i8, ptr %69, align 1, !tbaa !91
  %71 = sext i8 %70 to i64
  %72 = mul i64 %67, %71
  store i64 %72, ptr %9, align 8, !tbaa !74
  %73 = load i64, ptr %9, align 8, !tbaa !74
  %74 = load ptr, ptr %7, align 8, !tbaa !87
  %75 = getelementptr inbounds nuw %struct._ChannelData, ptr %74, i32 0, i32 6
  store i64 %73, ptr %75, align 8, !tbaa !115
  %76 = load ptr, ptr %7, align 8, !tbaa !87
  %77 = getelementptr inbounds nuw %struct._ChannelData, ptr %76, i32 0, i32 8
  %78 = load i32, ptr %77, align 4, !tbaa !54
  %79 = zext i32 %78 to i64
  %80 = getelementptr inbounds nuw [3 x ptr], ptr %3, i64 0, i64 %79
  %81 = load ptr, ptr %80, align 8, !tbaa !81
  %82 = load ptr, ptr %7, align 8, !tbaa !87
  %83 = getelementptr inbounds nuw %struct._ChannelData, ptr %82, i32 0, i32 2
  store ptr %81, ptr %83, align 8, !tbaa !182
  %84 = load ptr, ptr %7, align 8, !tbaa !87
  %85 = getelementptr inbounds nuw %struct._ChannelData, ptr %84, i32 0, i32 2
  %86 = load ptr, ptr %85, align 8, !tbaa !182
  %87 = load ptr, ptr %7, align 8, !tbaa !87
  %88 = getelementptr inbounds nuw %struct._ChannelData, ptr %87, i32 0, i32 3
  store ptr %86, ptr %88, align 16, !tbaa !113
  %89 = load ptr, ptr %7, align 8, !tbaa !87
  %90 = getelementptr inbounds nuw %struct._ChannelData, ptr %89, i32 0, i32 2
  %91 = load ptr, ptr %90, align 8, !tbaa !182
  %92 = load ptr, ptr %7, align 8, !tbaa !87
  %93 = getelementptr inbounds nuw %struct._ChannelData, ptr %92, i32 0, i32 4
  %94 = getelementptr inbounds [4 x ptr], ptr %93, i64 0, i64 0
  store ptr %91, ptr %94, align 8, !tbaa !81
  %95 = load ptr, ptr %7, align 8, !tbaa !87
  %96 = getelementptr inbounds nuw %struct._ChannelData, ptr %95, i32 0, i32 4
  %97 = getelementptr inbounds [4 x ptr], ptr %96, i64 0, i64 0
  %98 = load ptr, ptr %97, align 8, !tbaa !81
  %99 = load ptr, ptr %7, align 8, !tbaa !87
  %100 = getelementptr inbounds nuw %struct._ChannelData, ptr %99, i32 0, i32 5
  %101 = getelementptr inbounds [4 x ptr], ptr %100, i64 0, i64 0
  store ptr %98, ptr %101, align 8, !tbaa !81
  %102 = load ptr, ptr %7, align 8, !tbaa !87
  %103 = getelementptr inbounds nuw %struct._ChannelData, ptr %102, i32 0, i32 2
  %104 = load ptr, ptr %103, align 8, !tbaa !182
  %105 = icmp ne ptr %104, null
  br i1 %105, label %130, label %106

106:                                              ; preds = %49
  call void @llvm.lifetime.start.p0(i64 4, ptr %10) #14
  store i32 1, ptr %10, align 4, !tbaa !8
  br label %107

107:                                              ; preds = %126, %106
  %108 = load i32, ptr %10, align 4, !tbaa !8
  %109 = load ptr, ptr %8, align 8, !tbaa !88
  %110 = getelementptr inbounds nuw %struct.exr_coding_channel_info_t, ptr %109, i32 0, i32 6
  %111 = load i8, ptr %110, align 1, !tbaa !91
  %112 = sext i8 %111 to i32
  %113 = icmp slt i32 %108, %112
  br i1 %113, label %115, label %114

114:                                              ; preds = %107
  store i32 8, ptr %6, align 4
  call void @llvm.lifetime.end.p0(i64 4, ptr %10) #14
  br label %129

115:                                              ; preds = %107
  %116 = load ptr, ptr %7, align 8, !tbaa !87
  %117 = getelementptr inbounds nuw %struct._ChannelData, ptr %116, i32 0, i32 4
  %118 = load i32, ptr %10, align 4, !tbaa !8
  %119 = sext i32 %118 to i64
  %120 = getelementptr inbounds [4 x ptr], ptr %117, i64 0, i64 %119
  store ptr null, ptr %120, align 8, !tbaa !81
  %121 = load ptr, ptr %7, align 8, !tbaa !87
  %122 = getelementptr inbounds nuw %struct._ChannelData, ptr %121, i32 0, i32 5
  %123 = load i32, ptr %10, align 4, !tbaa !8
  %124 = sext i32 %123 to i64
  %125 = getelementptr inbounds [4 x ptr], ptr %122, i64 0, i64 %124
  store ptr null, ptr %125, align 8, !tbaa !81
  br label %126

126:                                              ; preds = %115
  %127 = load i32, ptr %10, align 4, !tbaa !8
  %128 = add nsw i32 %127, 1
  store i32 %128, ptr %10, align 4, !tbaa !8
  br label %107, !llvm.loop !183

129:                                              ; preds = %114
  br label %176

130:                                              ; preds = %49
  call void @llvm.lifetime.start.p0(i64 4, ptr %11) #14
  store i32 1, ptr %11, align 4, !tbaa !8
  br label %131

131:                                              ; preds = %172, %130
  %132 = load i32, ptr %11, align 4, !tbaa !8
  %133 = load ptr, ptr %8, align 8, !tbaa !88
  %134 = getelementptr inbounds nuw %struct.exr_coding_channel_info_t, ptr %133, i32 0, i32 6
  %135 = load i8, ptr %134, align 1, !tbaa !91
  %136 = sext i8 %135 to i32
  %137 = icmp slt i32 %132, %136
  br i1 %137, label %139, label %138

138:                                              ; preds = %131
  store i32 11, ptr %6, align 4
  call void @llvm.lifetime.end.p0(i64 4, ptr %11) #14
  br label %175

139:                                              ; preds = %131
  %140 = load ptr, ptr %7, align 8, !tbaa !87
  %141 = getelementptr inbounds nuw %struct._ChannelData, ptr %140, i32 0, i32 4
  %142 = load i32, ptr %11, align 4, !tbaa !8
  %143 = sub nsw i32 %142, 1
  %144 = sext i32 %143 to i64
  %145 = getelementptr inbounds [4 x ptr], ptr %141, i64 0, i64 %144
  %146 = load ptr, ptr %145, align 8, !tbaa !81
  %147 = load ptr, ptr %8, align 8, !tbaa !88
  %148 = getelementptr inbounds nuw %struct.exr_coding_channel_info_t, ptr %147, i32 0, i32 2
  %149 = load i32, ptr %148, align 4, !tbaa !90
  %150 = load ptr, ptr %8, align 8, !tbaa !88
  %151 = getelementptr inbounds nuw %struct.exr_coding_channel_info_t, ptr %150, i32 0, i32 1
  %152 = load i32, ptr %151, align 8, !tbaa !98
  %153 = mul nsw i32 %149, %152
  %154 = sext i32 %153 to i64
  %155 = getelementptr inbounds i8, ptr %146, i64 %154
  %156 = load ptr, ptr %7, align 8, !tbaa !87
  %157 = getelementptr inbounds nuw %struct._ChannelData, ptr %156, i32 0, i32 4
  %158 = load i32, ptr %11, align 4, !tbaa !8
  %159 = sext i32 %158 to i64
  %160 = getelementptr inbounds [4 x ptr], ptr %157, i64 0, i64 %159
  store ptr %155, ptr %160, align 8, !tbaa !81
  %161 = load ptr, ptr %7, align 8, !tbaa !87
  %162 = getelementptr inbounds nuw %struct._ChannelData, ptr %161, i32 0, i32 4
  %163 = load i32, ptr %11, align 4, !tbaa !8
  %164 = sext i32 %163 to i64
  %165 = getelementptr inbounds [4 x ptr], ptr %162, i64 0, i64 %164
  %166 = load ptr, ptr %165, align 8, !tbaa !81
  %167 = load ptr, ptr %7, align 8, !tbaa !87
  %168 = getelementptr inbounds nuw %struct._ChannelData, ptr %167, i32 0, i32 5
  %169 = load i32, ptr %11, align 4, !tbaa !8
  %170 = sext i32 %169 to i64
  %171 = getelementptr inbounds [4 x ptr], ptr %168, i64 0, i64 %170
  store ptr %166, ptr %171, align 8, !tbaa !81
  br label %172

172:                                              ; preds = %139
  %173 = load i32, ptr %11, align 4, !tbaa !8
  %174 = add nsw i32 %173, 1
  store i32 %174, ptr %11, align 4, !tbaa !8
  br label %131, !llvm.loop !184

175:                                              ; preds = %138
  br label %176

176:                                              ; preds = %175, %129
  %177 = load ptr, ptr %8, align 8, !tbaa !88
  %178 = getelementptr inbounds nuw %struct.exr_coding_channel_info_t, ptr %177, i32 0, i32 7
  %179 = load i16, ptr %178, align 2, !tbaa !55
  %180 = zext i16 %179 to i32
  %181 = load ptr, ptr %7, align 8, !tbaa !87
  %182 = getelementptr inbounds nuw %struct._ChannelData, ptr %181, i32 0, i32 9
  store i32 %180, ptr %182, align 8, !tbaa !185
  %183 = load ptr, ptr %7, align 8, !tbaa !87
  %184 = getelementptr inbounds nuw %struct._ChannelData, ptr %183, i32 0, i32 8
  %185 = load i32, ptr %184, align 4, !tbaa !54
  %186 = icmp eq i32 %185, 1
  br i1 %186, label %187, label %190

187:                                              ; preds = %176
  %188 = load ptr, ptr %7, align 8, !tbaa !87
  %189 = getelementptr inbounds nuw %struct._ChannelData, ptr %188, i32 0, i32 9
  store i32 2, ptr %189, align 8, !tbaa !185
  br label %199

190:                                              ; preds = %176
  %191 = load i64, ptr %9, align 8, !tbaa !74
  %192 = load ptr, ptr %7, align 8, !tbaa !87
  %193 = getelementptr inbounds nuw %struct._ChannelData, ptr %192, i32 0, i32 8
  %194 = load i32, ptr %193, align 4, !tbaa !54
  %195 = zext i32 %194 to i64
  %196 = getelementptr inbounds nuw [3 x ptr], ptr %3, i64 0, i64 %195
  %197 = load ptr, ptr %196, align 8, !tbaa !81
  %198 = getelementptr inbounds nuw i8, ptr %197, i64 %191
  store ptr %198, ptr %196, align 8, !tbaa !81
  br label %199

199:                                              ; preds = %190, %187
  call void @llvm.lifetime.end.p0(i64 8, ptr %9) #14
  call void @llvm.lifetime.end.p0(i64 8, ptr %8) #14
  call void @llvm.lifetime.end.p0(i64 8, ptr %7) #14
  br label %200

200:                                              ; preds = %199
  %201 = load i32, ptr %5, align 4, !tbaa !8
  %202 = add nsw i32 %201, 1
  store i32 %202, ptr %5, align 4, !tbaa !8
  br label %42, !llvm.loop !186

203:                                              ; preds = %48
  store i32 1, ptr %6, align 4
  call void @llvm.lifetime.end.p0(i64 24, ptr %3) #14
  ret i32 0
}