; Function Attrs: nofree norecurse nosync nounwind memory(readwrite, inaccessiblemem: none) uwtable
define internal fastcc void @DwaCompressor_setupChannelData(ptr noundef nonnull readonly captures(none) %0) unnamed_addr #10 {
  %2 = alloca [3 x ptr], align 16
  call void @llvm.lifetime.start.p0(i64 24, ptr nonnull %2) #20
  %3 = getelementptr inbounds nuw i8, ptr %0, i64 136
  br label %9

.preheader61:                                     ; preds = %9
  %4 = getelementptr inbounds nuw i8, ptr %0, i64 40
  %5 = load i32, ptr %4, align 8, !tbaa !45
  %6 = icmp sgt i32 %5, 0
  br i1 %6, label %.lr.ph67, label %._crit_edge

.lr.ph67:                                         ; preds = %.preheader61
  %7 = getelementptr inbounds nuw i8, ptr %0, i64 48
  %8 = load ptr, ptr %7, align 8, !tbaa !44
  %wide.trip.count82 = zext nneg i32 %5 to i64
  br label %13

9:                                                ; preds = %1, %9
  %indvars.iv = phi i64 [ 0, %1 ], [ %indvars.iv.next, %9 ]
  %10 = getelementptr inbounds nuw [3 x ptr], ptr %2, i64 0, i64 %indvars.iv
  %11 = getelementptr inbounds nuw [3 x ptr], ptr %3, i64 0, i64 %indvars.iv
  %12 = load ptr, ptr %11, align 8, !tbaa !97
  store ptr %12, ptr %10, align 8
  %indvars.iv.next = add nuw nsw i64 %indvars.iv, 1
  %exitcond.not = icmp eq i64 %indvars.iv.next, 3
  br i1 %exitcond.not, label %.preheader61, label %9, !llvm.loop !203

._crit_edge:                                      ; preds = %56, %.preheader61
  call void @llvm.lifetime.end.p0(i64 24, ptr nonnull %2) #20
  ret void

13:                                               ; preds = %.lr.ph67, %56
  %indvars.iv79 = phi i64 [ 0, %.lr.ph67 ], [ %indvars.iv.next80, %56 ]
  %14 = getelementptr inbounds nuw %struct._ChannelData, ptr %8, i64 %indvars.iv79
  %15 = getelementptr inbounds nuw i8, ptr %14, i64 448
  %16 = load ptr, ptr %15, align 32, !tbaa !54
  %17 = getelementptr inbounds nuw i8, ptr %16, i64 12
  %18 = load i32, ptr %17, align 4, !tbaa !93
  %19 = sext i32 %18 to i64
  %20 = getelementptr inbounds nuw i8, ptr %16, i64 8
  %21 = load i32, ptr %20, align 8, !tbaa !94
  %22 = sext i32 %21 to i64
  %23 = mul nsw i64 %22, %19
  %24 = getelementptr inbounds nuw i8, ptr %16, i64 25
  %25 = load i8, ptr %24, align 1, !tbaa !95
  %26 = sext i8 %25 to i64
  %27 = mul i64 %23, %26
  %28 = getelementptr inbounds nuw i8, ptr %14, i64 536
  store i64 %27, ptr %28, align 8, !tbaa !96
  %29 = getelementptr inbounds nuw i8, ptr %14, i64 548
  %30 = load i32, ptr %29, align 4, !tbaa !59
  %31 = zext i32 %30 to i64
  %32 = getelementptr inbounds nuw [3 x ptr], ptr %2, i64 0, i64 %31
  %33 = load ptr, ptr %32, align 8, !tbaa !97
  %34 = getelementptr inbounds nuw i8, ptr %14, i64 456
  store ptr %33, ptr %34, align 8, !tbaa !98
  %35 = getelementptr inbounds nuw i8, ptr %14, i64 464
  store ptr %33, ptr %35, align 16, !tbaa !99
  %36 = getelementptr inbounds nuw i8, ptr %14, i64 472
  store ptr %33, ptr %36, align 8, !tbaa !97
  %37 = getelementptr inbounds nuw i8, ptr %14, i64 504
  store ptr %33, ptr %37, align 8, !tbaa !97
  %.not = icmp eq ptr %33, null
  %38 = icmp sgt i8 %25, 1
  br i1 %.not, label %.preheader, label %.preheader59

.preheader59:                                     ; preds = %13
  br i1 %38, label %.lr.ph, label %.loopexit

.lr.ph:                                           ; preds = %.preheader59
  %wide.trip.count = zext nneg i8 %25 to i64
  %39 = mul nsw i32 %21, %18
  %40 = sext i32 %39 to i64
  br label %43

.preheader:                                       ; preds = %13
  br i1 %38, label %.lr.ph65.preheader, label %.loopexit

.lr.ph65.preheader:                               ; preds = %.preheader
  %wide.trip.count77 = zext nneg i8 %25 to i64
  br label %.lr.ph65

.lr.ph65:                                         ; preds = %.lr.ph65.preheader, %.lr.ph65
  %indvars.iv74 = phi i64 [ 1, %.lr.ph65.preheader ], [ %indvars.iv.next75, %.lr.ph65 ]
  %41 = getelementptr inbounds nuw [4 x ptr], ptr %36, i64 0, i64 %indvars.iv74
  store ptr null, ptr %41, align 8, !tbaa !97
  %42 = getelementptr inbounds nuw [4 x ptr], ptr %37, i64 0, i64 %indvars.iv74
  store ptr null, ptr %42, align 8, !tbaa !97
  %indvars.iv.next75 = add nuw nsw i64 %indvars.iv74, 1
  %exitcond78.not = icmp eq i64 %indvars.iv.next75, %wide.trip.count77
  br i1 %exitcond78.not, label %.loopexit, label %.lr.ph65, !llvm.loop !100

43:                                               ; preds = %.lr.ph, %43
  %44 = phi ptr [ %33, %.lr.ph ], [ %45, %43 ]
  %indvars.iv70 = phi i64 [ 1, %.lr.ph ], [ %indvars.iv.next71, %43 ]
  %45 = getelementptr inbounds i8, ptr %44, i64 %40
  %46 = getelementptr inbounds nuw [4 x ptr], ptr %36, i64 0, i64 %indvars.iv70
  store ptr %45, ptr %46, align 8, !tbaa !97
  %47 = getelementptr inbounds nuw [4 x ptr], ptr %37, i64 0, i64 %indvars.iv70
  store ptr %45, ptr %47, align 8, !tbaa !97
  %indvars.iv.next71 = add nuw nsw i64 %indvars.iv70, 1
  %exitcond73.not = icmp eq i64 %indvars.iv.next71, %wide.trip.count
  br i1 %exitcond73.not, label %.loopexit, label %43, !llvm.loop !101

.loopexit:                                        ; preds = %43, %.lr.ph65, %.preheader59, %.preheader
  %48 = getelementptr inbounds nuw i8, ptr %16, i64 26
  %49 = load i16, ptr %48, align 2, !tbaa !60
  %50 = zext i16 %49 to i32
  %51 = getelementptr inbounds nuw i8, ptr %14, i64 552
  store i32 %50, ptr %51, align 8, !tbaa !102
  %52 = icmp eq i32 %30, 1
  br i1 %52, label %53, label %54

53:                                               ; preds = %.loopexit
  store i32 2, ptr %51, align 8, !tbaa !102
  br label %56

54:                                               ; preds = %.loopexit
  %55 = getelementptr inbounds nuw i8, ptr %33, i64 %27
  store ptr %55, ptr %32, align 8, !tbaa !97
  br label %56

56:                                               ; preds = %54, %53
  %indvars.iv.next80 = add nuw nsw i64 %indvars.iv79, 1
  %exitcond83.not = icmp eq i64 %indvars.iv.next80, %wide.trip.count82
  br i1 %exitcond83.not, label %._crit_edge, label %13, !llvm.loop !103
}